; Function Attrs: null_pointer_is_valid sspstrong uwtable
define internal i32 @dissect_pmip6_opt_grek(ptr noundef %0, ptr noundef %1, ptr noundef %2, ptr readnone captures(none) %3) #0 {
  %5 = alloca ptr, align 8
  %6 = alloca i32, align 4
  call void @llvm.lifetime.start.p0(i64 8, ptr nonnull %5) #5
  %7 = tail call i32 @tvb_reported_length(ptr noundef %0)
  %8 = add i32 %7, -2
  call void @llvm.lifetime.start.p0(i64 4, ptr nonnull %6) #5
  %9 = load i32, ptr @proto_mip6_option_grek, align 4
  %10 = load i32, ptr @ett_pmip6_opt_grek, align 4
  %11 = call fastcc ptr @mip6_var_option_header(ptr noundef %2, ptr noundef %1, ptr noundef %0, i32 noundef %9, i32 noundef %10, ptr noundef nonnull %5, i32 noundef %8, i32 noundef 2)
  %12 = load i32, ptr @hf_mip6_ipv4dra_reserved, align 4
  %13 = tail call ptr @proto_tree_add_item(ptr noundef %11, i32 noundef %12, ptr noundef %0, i32 noundef 2, i32 noundef 2, i32 noundef 0)
  %14 = icmp eq i32 %8, 6
  br i1 %14, label %15, label %20

15:                                               ; preds = %4
  %16 = load i32, ptr @hf_pmip6_gre_key, align 4
  %17 = call ptr @proto_tree_add_item_ret_uint(ptr noundef %11, i32 noundef %16, ptr noundef %0, i32 noundef 4, i32 noundef 4, i32 noundef 0, ptr noundef nonnull %6)
  %18 = load ptr, ptr %5, align 8
  %19 = load i32, ptr %6, align 4
  call void (ptr, ptr, ...) @proto_item_append_text(ptr noundef %18, ptr noundef nonnull @.str.758, i32 noundef %19)
  br label %20

20:                                               ; preds = %15, %4
  %21 = call i32 @tvb_captured_length(ptr noundef %0)
  call void @llvm.lifetime.end.p0(i64 4, ptr nonnull %6) #5
  call void @llvm.lifetime.end.p0(i64 8, ptr nonnull %5) #5
  ret i32 %21
}